; Function Attrs: mustprogress nounwind uwtable
define internal void @_ZN12_GLOBAL__N_115RISCVPassConfig17addCodeGenPrepareEv(ptr noundef nonnull align 8 dereferenceable(134) %0) unnamed_addr #0 align 2 {
  %2 = tail call noundef i32 @_ZNK4llvm16TargetPassConfig11getOptLevelEv(ptr noundef nonnull align 8 dereferenceable(134) %0) #24
  %.not = icmp eq i32 %2, 0
  br i1 %.not, label %5, label %3

3:                                                ; preds = %1
  %4 = tail call noundef ptr @_ZN4llvm29createTypePromotionLegacyPassEv() #24
  tail call void @_ZN4llvm16TargetPassConfig7addPassEPNS_4PassE(ptr noundef nonnull align 8 dereferenceable(134) %0, ptr noundef %4) #24
  br label %5

5:                                                ; preds = %3, %1
  tail call void @_ZN4llvm16TargetPassConfig17addCodeGenPrepareEv(ptr noundef nonnull align 8 dereferenceable(134) %0) #24
  ret void
}